target datalayout = "e-m:e-p270:32:32-p271:32:32-p272:64:64-i64:64-i128:128-f80:128-n8:16:32:64-S128"
target triple = "x86_64-pc-linux-gnu"

%struct.MPVEncContext = type { %struct.MpegEncContext, %struct.PutBitContext, i32, i32, ptr, i32, i32, i32, i32, i32, i32, i32, i32, ptr, ptr, %struct.FDCTDSPContext, %struct.MpegvideoEncDSPContext, %struct.PixblockDSPContext, %struct.MotionEstContext, i32, i32, ptr, ptr, ptr, ptr, ptr, ptr, [2 x [2 x [2 x ptr]]], [2 x ptr], [2 x [2 x ptr]], ptr, ptr, ptr, ptr, [3 x i64], i32, i32, i32, i32, i32, ptr, ptr, ptr, ptr, ptr, ptr, ptr, [12 x i32], ptr, ptr, ptr, ptr, ptr, ptr, ptr, ptr, [2 x i32], ptr, i32, i32, i32, i32, i32, i32, i32, i32, i32, i32, ptr, ptr, i32, i32, %struct.PutBitContext, %struct.PutBitContext, i32, i32, i32, i32, ptr, ptr, ptr, [2 x ptr], [2 x ptr], [2 x ptr], [2 x ptr], ptr, i32 }
%struct.MpegEncContext = type { ptr, i32, i32, i32, [12 x i32], i32, %struct.ScanTable, %struct.ScanTable, [64 x i8], [64 x i8], ptr, ptr, i32, i32, i32, i32, i32, i32, i32, i32, i32, i32, i32, i32, i32, i32, i32, i32, i32, i32, i32, i32, i64, i64, ptr, %struct.BufferPoolContext, i32, i32, %union.anon.0, i32, %struct.MPVWorkPicture, %struct.MPVWorkPicture, %struct.MPVWorkPicture, i32, [3 x i32], ptr, [3 x ptr], ptr, ptr, ptr, ptr, ptr, ptr, [3 x ptr], i32, ptr, ptr, ptr, ptr, %struct.ScratchpadContext, i32, i32, i32, i32, i32, i32, %struct.BlockDSPContext, %struct.H264ChromaContext, %struct.HpelDSPContext, %struct.IDCTDSPContext, %struct.QpelDSPContext, %struct.VideoDSPContext, %struct.H263DSPContext, ptr, [2 x [2 x ptr]], i32, i32, [2 x [4 x [2 x i32]]], [2 x [2 x i32]], [2 x [2 x [2 x i32]]], [2 x [64 x i16]], i32, i32, i32, i32, i32, [6 x i32], [6 x i32], [3 x ptr], ptr, [64 x i16], [64 x i16], [64 x i16], [64 x i16], i32, i32, %struct.GetBitContext, i32, i32, i32, i32, i32, i32, i32, i32, i32, i32, i32, i32, i32, i32, i32, i64, i64, i16, i16, i16, i16, i32, i32, i32, i32, i32, i32, i32, i32, i32, [3 x i32], i32, i32, i32, i32, i32, i32, %struct.GetBitContext, i32, [2 x [2 x i32]], i32, i32, i32, i32, i32, i32, i32, i32, i32, i32, i32, i32, i32, i32, [2 x i32], i32, i32, ptr, ptr, ptr, ptr, ptr, i32, i32, %struct.ERContext }
%struct.ScanTable = type { ptr, [64 x i8], [64 x i8] }
%struct.BufferPoolContext = type { ptr, ptr, ptr, ptr, ptr, i32, i32, i32 }
%union.anon.0 = type { [32 x ptr] }
%struct.MPVWorkPicture = type { [3 x ptr], [3 x i64], ptr, ptr, [2 x ptr], ptr, ptr, [2 x ptr], i32 }
%struct.ScratchpadContext = type { ptr, ptr, %union.anon.1, i32 }
%union.anon.1 = type { ptr }
%struct.BlockDSPContext = type { ptr, ptr, [2 x ptr] }
%struct.H264ChromaContext = type { [4 x ptr], [4 x ptr] }
%struct.HpelDSPContext = type { [4 x [4 x ptr]], [4 x [4 x ptr]], [4 x [4 x ptr]], [4 x ptr] }
%struct.IDCTDSPContext = type { ptr, ptr, ptr, ptr, ptr, ptr, [64 x i8], i32, i32 }
%struct.QpelDSPContext = type { [2 x [16 x ptr]], [2 x [16 x ptr]], [2 x [16 x ptr]] }
%struct.VideoDSPContext = type { ptr, ptr }
%struct.H263DSPContext = type { ptr, ptr }
%struct.GetBitContext = type { ptr, ptr, i32, i32, i32 }
%struct.ERContext = type { ptr, ptr, i32, ptr, i32, i32, i32, i64, i64, i32, i32, ptr, ptr, [3 x ptr], ptr, ptr, [2 x [4 x [2 x i32]]], %struct.ERPicture, %struct.ERPicture, %struct.ERPicture, [2 x ptr], [2 x ptr], i16, i16, i32, i32, ptr, ptr }
%struct.ERPicture = type { ptr, ptr, ptr, [2 x ptr], [2 x ptr], ptr, i32 }
%struct.FDCTDSPContext = type { ptr, ptr }
%struct.MpegvideoEncDSPContext = type { ptr, ptr, ptr, ptr, [4 x ptr], ptr }
%struct.PixblockDSPContext = type { ptr, ptr, ptr, ptr }
%struct.MotionEstContext = type { ptr, i32, i32, [4 x [2 x i32]], [4 x [2 x i32]], ptr, ptr, i32, i32, i32, i32, i32, i32, i32, i32, i32, i32, i32, i32, i32, i32, i32, i32, [4 x [4 x ptr]], [4 x [4 x ptr]], i32, i32, i64, i64, i32, [6 x ptr], [6 x ptr], [6 x ptr], [6 x ptr], [2 x [4 x ptr]], ptr, ptr, ptr, ptr, ptr, ptr, ptr, ptr, [64 x i32], [64 x i32] }
%struct.PutBitContext = type { i32, i32, ptr, ptr, ptr }
%struct.AVCodecContext = type { ptr, i32, i32, ptr, i32, i32, ptr, ptr, ptr, i64, i32, i32, ptr, i32, %struct.AVRational, %struct.AVRational, %struct.AVRational, i32, i32, i32, i32, i32, %struct.AVRational, i32, i32, i32, i32, i32, i32, i32, i32, i32, i32, i32, ptr, ptr, i32, float, float, float, float, float, float, float, float, float, i32, i32, i32, i32, i32, i32, i32, i32, i32, i32, i32, i32, ptr, ptr, ptr, i32, i32, i32, i32, i32, i32, i32, i32, i32, i32, %struct.AVChannelLayout, i32, i32, i32, i32, i32, i32, i32, i32, ptr, i32, i32, i32, float, float, i32, i32, i32, i32, i32, ptr, i64, i64, float, float, i32, i32, ptr, ptr, i32, i32, i32, i32, i32, ptr, ptr, ptr, ptr, i32, i32, [8 x i64], i32, i32, i32, i32, i32, i32, i32, ptr, ptr, i32, i32, i32, i32, i32, i32, i32, i32, i32, i32, ptr, ptr, i32, i32, ptr, ptr, ptr, ptr, i32, i32, i64, i32, i32, i64, ptr, i64, ptr, i32, ptr, i32 }
%struct.AVRational = type { i32, i32 }
%struct.AVChannelLayout = type { i32, i32, %union.anon.2, ptr }
%union.anon.2 = type { i64 }

; Function Attrs: nounwind uwtable
define internal i32 @estimate_motion_thread(ptr noundef %0, ptr noundef %1) #1 {
  %3 = alloca ptr, align 8
  %4 = alloca ptr, align 8
  %5 = alloca ptr, align 8
  store ptr %0, ptr %3, align 8, !tbaa !125
  store ptr %1, ptr %4, align 8, !tbaa !259
  call void @llvm.lifetime.start.p0(i64 8, ptr %5) #14
  %6 = load ptr, ptr %4, align 8, !tbaa !259
  %7 = load ptr, ptr %6, align 8, !tbaa !259
  store ptr %7, ptr %5, align 8, !tbaa !4
  %8 = load ptr, ptr %5, align 8, !tbaa !4
  %9 = getelementptr inbounds nuw %struct.MPVEncContext, ptr %8, i32 0, i32 0
  %10 = getelementptr inbounds nuw %struct.MpegEncContext, ptr %9, i32 0, i32 10
  %11 = load ptr, ptr %10, align 8, !tbaa !63
  %12 = getelementptr inbounds nuw %struct.AVCodecContext, ptr %11, i32 0, i32 51
  %13 = load i32, ptr %12, align 4, !tbaa !466
  %14 = load ptr, ptr %5, align 8, !tbaa !4
  %15 = getelementptr inbounds nuw %struct.MPVEncContext, ptr %14, i32 0, i32 18
  %16 = getelementptr inbounds nuw %struct.MotionEstContext, ptr %15, i32 0, i32 16
  store i32 %13, ptr %16, align 4, !tbaa !462
  %17 = load ptr, ptr %5, align 8, !tbaa !4
  %18 = getelementptr inbounds nuw %struct.MPVEncContext, ptr %17, i32 0, i32 0
  %19 = getelementptr inbounds nuw %struct.MpegEncContext, ptr %18, i32 0, i32 129
  store i32 1, ptr %19, align 4, !tbaa !463
  %20 = load ptr, ptr %5, align 8, !tbaa !4
  %21 = getelementptr inbounds nuw %struct.MPVEncContext, ptr %20, i32 0, i32 0
  %22 = getelementptr inbounds nuw %struct.MpegEncContext, ptr %21, i32 0, i32 36
  %23 = load i32, ptr %22, align 8, !tbaa !378
  %24 = load ptr, ptr %5, align 8, !tbaa !4
  %25 = getelementptr inbounds nuw %struct.MPVEncContext, ptr %24, i32 0, i32 0
  %26 = getelementptr inbounds nuw %struct.MpegEncContext, ptr %25, i32 0, i32 83
  store i32 %23, ptr %26, align 8, !tbaa !403
  br label %27

27:                                               ; preds = %117, %2
  %28 = load ptr, ptr %5, align 8, !tbaa !4
  %29 = getelementptr inbounds nuw %struct.MPVEncContext, ptr %28, i32 0, i32 0
  %30 = getelementptr inbounds nuw %struct.MpegEncContext, ptr %29, i32 0, i32 83
  %31 = load i32, ptr %30, align 8, !tbaa !403
  %32 = load ptr, ptr %5, align 8, !tbaa !4
  %33 = getelementptr inbounds nuw %struct.MPVEncContext, ptr %32, i32 0, i32 0
  %34 = getelementptr inbounds nuw %struct.MpegEncContext, ptr %33, i32 0, i32 37
  %35 = load i32, ptr %34, align 4, !tbaa !379
  %36 = icmp slt i32 %31, %35
  br i1 %36, label %37, label %123

37:                                               ; preds = %27
  %38 = load ptr, ptr %5, align 8, !tbaa !4
  %39 = getelementptr inbounds nuw %struct.MPVEncContext, ptr %38, i32 0, i32 0
  %40 = getelementptr inbounds nuw %struct.MpegEncContext, ptr %39, i32 0, i32 82
  store i32 0, ptr %40, align 4, !tbaa !404
  %41 = load ptr, ptr %5, align 8, !tbaa !4
  %42 = getelementptr inbounds nuw %struct.MPVEncContext, ptr %41, i32 0, i32 0
  call void @ff_init_block_index(ptr noundef %42)
  %43 = load ptr, ptr %5, align 8, !tbaa !4
  %44 = getelementptr inbounds nuw %struct.MPVEncContext, ptr %43, i32 0, i32 0
  %45 = getelementptr inbounds nuw %struct.MpegEncContext, ptr %44, i32 0, i32 82
  store i32 0, ptr %45, align 4, !tbaa !404
  br label %46

46:                                               ; preds = %107, %37
  %47 = load ptr, ptr %5, align 8, !tbaa !4
  %48 = getelementptr inbounds nuw %struct.MPVEncContext, ptr %47, i32 0, i32 0
  %49 = getelementptr inbounds nuw %struct.MpegEncContext, ptr %48, i32 0, i32 82
  %50 = load i32, ptr %49, align 4, !tbaa !404
  %51 = load ptr, ptr %5, align 8, !tbaa !4
  %52 = getelementptr inbounds nuw %struct.MPVEncContext, ptr %51, i32 0, i32 0
  %53 = getelementptr inbounds nuw %struct.MpegEncContext, ptr %52, i32 0, i32 25
  %54 = load i32, ptr %53, align 4, !tbaa !301
  %55 = icmp slt i32 %50, %54
  br i1 %55, label %56, label %113

56:                                               ; preds = %46
  %57 = load ptr, ptr %5, align 8, !tbaa !4
  %58 = getelementptr inbounds nuw %struct.MPVEncContext, ptr %57, i32 0, i32 0
  %59 = getelementptr inbounds nuw %struct.MpegEncContext, ptr %58, i32 0, i32 86
  %60 = getelementptr inbounds [6 x i32], ptr %59, i64 0, i64 0
  %61 = load i32, ptr %60, align 4, !tbaa !13
  %62 = add nsw i32 %61, 2
  store i32 %62, ptr %60, align 4, !tbaa !13
  %63 = load ptr, ptr %5, align 8, !tbaa !4
  %64 = getelementptr inbounds nuw %struct.MPVEncContext, ptr %63, i32 0, i32 0
  %65 = getelementptr inbounds nuw %struct.MpegEncContext, ptr %64, i32 0, i32 86
  %66 = getelementptr inbounds [6 x i32], ptr %65, i64 0, i64 1
  %67 = load i32, ptr %66, align 4, !tbaa !13
  %68 = add nsw i32 %67, 2
  store i32 %68, ptr %66, align 4, !tbaa !13
  %69 = load ptr, ptr %5, align 8, !tbaa !4
  %70 = getelementptr inbounds nuw %struct.MPVEncContext, ptr %69, i32 0, i32 0
  %71 = getelementptr inbounds nuw %struct.MpegEncContext, ptr %70, i32 0, i32 86
  %72 = getelementptr inbounds [6 x i32], ptr %71, i64 0, i64 2
  %73 = load i32, ptr %72, align 4, !tbaa !13
  %74 = add nsw i32 %73, 2
  store i32 %74, ptr %72, align 4, !tbaa !13
  %75 = load ptr, ptr %5, align 8, !tbaa !4
  %76 = getelementptr inbounds nuw %struct.MPVEncContext, ptr %75, i32 0, i32 0
  %77 = getelementptr inbounds nuw %struct.MpegEncContext, ptr %76, i32 0, i32 86
  %78 = getelementptr inbounds [6 x i32], ptr %77, i64 0, i64 3
  %79 = load i32, ptr %78, align 4, !tbaa !13
  %80 = add nsw i32 %79, 2
  store i32 %80, ptr %78, align 4, !tbaa !13
  %81 = load ptr, ptr %5, align 8, !tbaa !4
  %82 = getelementptr inbounds nuw %struct.MPVEncContext, ptr %81, i32 0, i32 0
  %83 = getelementptr inbounds nuw %struct.MpegEncContext, ptr %82, i32 0, i32 62
  %84 = load i32, ptr %83, align 8, !tbaa !315
  %85 = icmp eq i32 %84, 3
  br i1 %85, label %86, label %96

86:                                               ; preds = %56
  %87 = load ptr, ptr %5, align 8, !tbaa !4
  %88 = load ptr, ptr %5, align 8, !tbaa !4
  %89 = getelementptr inbounds nuw %struct.MPVEncContext, ptr %88, i32 0, i32 0
  %90 = getelementptr inbounds nuw %struct.MpegEncContext, ptr %89, i32 0, i32 82
  %91 = load i32, ptr %90, align 4, !tbaa !404
  %92 = load ptr, ptr %5, align 8, !tbaa !4
  %93 = getelementptr inbounds nuw %struct.MPVEncContext, ptr %92, i32 0, i32 0
  %94 = getelementptr inbounds nuw %struct.MpegEncContext, ptr %93, i32 0, i32 83
  %95 = load i32, ptr %94, align 8, !tbaa !403
  call void @ff_estimate_b_frame_motion(ptr noundef %87, i32 noundef %91, i32 noundef %95)
  br label %106

96:                                               ; preds = %56
  %97 = load ptr, ptr %5, align 8, !tbaa !4
  %98 = load ptr, ptr %5, align 8, !tbaa !4
  %99 = getelementptr inbounds nuw %struct.MPVEncContext, ptr %98, i32 0, i32 0
  %100 = getelementptr inbounds nuw %struct.MpegEncContext, ptr %99, i32 0, i32 82
  %101 = load i32, ptr %100, align 4, !tbaa !404
  %102 = load ptr, ptr %5, align 8, !tbaa !4
  %103 = getelementptr inbounds nuw %struct.MPVEncContext, ptr %102, i32 0, i32 0
  %104 = getelementptr inbounds nuw %struct.MpegEncContext, ptr %103, i32 0, i32 83
  %105 = load i32, ptr %104, align 8, !tbaa !403
  call void @ff_estimate_p_frame_motion(ptr noundef %97, i32 noundef %101, i32 noundef %105)
  br label %106

106:                                              ; preds = %96, %86
  br label %107

107:                                              ; preds = %106
  %108 = load ptr, ptr %5, align 8, !tbaa !4
  %109 = getelementptr inbounds nuw %struct.MPVEncContext, ptr %108, i32 0, i32 0
  %110 = getelementptr inbounds nuw %struct.MpegEncContext, ptr %109, i32 0, i32 82
  %111 = load i32, ptr %110, align 4, !tbaa !404
  %112 = add nsw i32 %111, 1
  store i32 %112, ptr %110, align 4, !tbaa !404
  br label %46, !llvm.loop !467

113:                                              ; preds = %46
  %114 = load ptr, ptr %5, align 8, !tbaa !4
  %115 = getelementptr inbounds nuw %struct.MPVEncContext, ptr %114, i32 0, i32 0
  %116 = getelementptr inbounds nuw %struct.MpegEncContext, ptr %115, i32 0, i32 129
  store i32 0, ptr %116, align 4, !tbaa !463
  br label %117

117:                                              ; preds = %113
  %118 = load ptr, ptr %5, align 8, !tbaa !4
  %119 = getelementptr inbounds nuw %struct.MPVEncContext, ptr %118, i32 0, i32 0
  %120 = getelementptr inbounds nuw %struct.MpegEncContext, ptr %119, i32 0, i32 83
  %121 = load i32, ptr %120, align 8, !tbaa !403
  %122 = add nsw i32 %121, 1
  store i32 %122, ptr %120, align 8, !tbaa !403
  br label %27, !llvm.loop !468

123:                                              ; preds = %27
  call void @llvm.lifetime.end.p0(i64 8, ptr %5) #14
  ret i32 0
}