; Function Attrs: nounwind uwtable
define internal noundef i32 @estimate_motion_thread(ptr readnone captures(none) %0, ptr noundef readonly captures(none) %1) #1 {
  %3 = load ptr, ptr %1, align 8, !tbaa !234
  %4 = getelementptr inbounds nuw i8, ptr %3, i64 472
  %5 = load ptr, ptr %4, align 8, !tbaa !56
  %6 = getelementptr inbounds nuw i8, ptr %5, i64 260
  %7 = load i32, ptr %6, align 4, !tbaa !445
  %8 = getelementptr inbounds nuw i8, ptr %3, i64 5156
  store i32 %7, ptr %8, align 4, !tbaa !440
  %9 = getelementptr inbounds nuw i8, ptr %3, i64 4140
  store i32 1, ptr %9, align 4, !tbaa !441
  %10 = getelementptr inbounds nuw i8, ptr %3, i64 648
  %11 = load i32, ptr %10, align 8, !tbaa !353
  %12 = getelementptr inbounds nuw i8, ptr %3, i64 3352
  %13 = getelementptr inbounds nuw i8, ptr %3, i64 652
  store i32 %11, ptr %12, align 8, !tbaa !378
  %14 = load i32, ptr %13, align 4, !tbaa !354
  %15 = icmp slt i32 %11, %14
  br i1 %15, label %.lr.ph30, label %._crit_edge31

.lr.ph30:                                         ; preds = %2
  %16 = getelementptr inbounds nuw i8, ptr %3, i64 3348
  %17 = getelementptr inbounds nuw i8, ptr %3, i64 540
  %18 = getelementptr inbounds nuw i8, ptr %3, i64 3364
  %19 = getelementptr inbounds nuw i8, ptr %3, i64 3368
  %20 = getelementptr inbounds nuw i8, ptr %3, i64 3372
  %21 = getelementptr inbounds nuw i8, ptr %3, i64 3376
  %22 = getelementptr inbounds nuw i8, ptr %3, i64 1480
  br label %23

23:                                               ; preds = %.lr.ph30, %._crit_edge
  store i32 0, ptr %16, align 4, !tbaa !379
  tail call void @ff_init_block_index(ptr noundef nonnull %3) #16
  store i32 0, ptr %16, align 4, !tbaa !379
  %24 = load i32, ptr %17, align 4, !tbaa !297
  %25 = icmp sgt i32 %24, 0
  br i1 %25, label %.lr.ph, label %._crit_edge

.lr.ph:                                           ; preds = %23, %39
  %storemerge2728 = phi i32 [ %41, %39 ], [ 0, %23 ]
  %26 = load i32, ptr %18, align 4, !tbaa !49
  %27 = add nsw i32 %26, 2
  store i32 %27, ptr %18, align 4, !tbaa !49
  %28 = load i32, ptr %19, align 4, !tbaa !49
  %29 = add nsw i32 %28, 2
  store i32 %29, ptr %19, align 4, !tbaa !49
  %30 = load i32, ptr %20, align 4, !tbaa !49
  %31 = add nsw i32 %30, 2
  store i32 %31, ptr %20, align 4, !tbaa !49
  %32 = load i32, ptr %21, align 4, !tbaa !49
  %33 = add nsw i32 %32, 2
  store i32 %33, ptr %21, align 4, !tbaa !49
  %34 = load i32, ptr %22, align 8, !tbaa !341
  %35 = icmp eq i32 %34, 3
  %36 = load i32, ptr %12, align 8, !tbaa !378
  br i1 %35, label %37, label %38

37:                                               ; preds = %.lr.ph
  tail call void @ff_estimate_b_frame_motion(ptr noundef nonnull %3, i32 noundef %storemerge2728, i32 noundef %36) #16
  br label %39

38:                                               ; preds = %.lr.ph
  tail call void @ff_estimate_p_frame_motion(ptr noundef nonnull %3, i32 noundef %storemerge2728, i32 noundef %36) #16
  br label %39

39:                                               ; preds = %37, %38
  %40 = load i32, ptr %16, align 4, !tbaa !379
  %41 = add nsw i32 %40, 1
  store i32 %41, ptr %16, align 4, !tbaa !379
  %42 = load i32, ptr %17, align 4, !tbaa !297
  %43 = icmp slt i32 %41, %42
  br i1 %43, label %.lr.ph, label %._crit_edge, !llvm.loop !446

._crit_edge:                                      ; preds = %39, %23
  store i32 0, ptr %9, align 4, !tbaa !441
  %44 = load i32, ptr %12, align 8, !tbaa !378
  %45 = add nsw i32 %44, 1
  store i32 %45, ptr %12, align 8, !tbaa !378
  %46 = load i32, ptr %13, align 4, !tbaa !354
  %47 = icmp slt i32 %45, %46
  br i1 %47, label %23, label %._crit_edge31, !llvm.loop !447

._crit_edge31:                                    ; preds = %._crit_edge, %2
  ret i32 0
}